(lp0
(dp1
S'loopUrl'
p2
(lp3
S'${nextPageUrl1}'
p4
asS'encoding'
p5
S'UTF-8'
p6
sS'url'
p7
(lp8
S'http://songshuhui.net/archives/tag/%E5%8E%9F%E5%88%9B'
p9
asS'regexps'
p10
(lp11
(dp12
S'unique'
p13
S'1'
p14
sS'exp'
p15
(lp16
S'<a class="nextpostslink" href="([^"]*)"[^>]*>[^<]*</a>'
p17
asS'str'
p18
S'nextPageUrl'
p19
sasS'job_description'
p20
S'\xe7\xa7\x91\xe5\xad\xa6\xe6\x9d\xbe\xe9\xbc\xa0\xe4\xbc\x9a-\xe5\x8e\x9f\xe5\x88\x9b\xe5\x88\x97\xe8\xa1\xa8'
p21
sS'needLoop'
p22
g14
sS'getblocks'
p23
(dp24
S'end_str'
p25
S'</html>'
p26
sS'start_str'
p27
S'<html>'
p28
sS'cnt_str'
p29
S'comblock'
p30
ssa(dp31
g2
(lp32
sg5
g6
sg7
(lp33
S'inline:///${comblock}'
p34
asg10
(lp35
(dp36
g13
S'0'
p37
sg15
(lp38
S'<h3 class="storytitle"><a class="black" href="([^"]*)"[^>]*>([^<]*)</a></h3>'
p39
asg18
S'title'
p40
sasg20
S'\xe7\xa7\x91\xe5\xad\xa6\xe6\x9d\xbe\xe9\xbc\xa0\xe4\xbc\x9a-\xe5\x8e\x9f\xe5\x88\x9b\xe6\xa0\x87\xe9\xa2\x98\xe9\x93\xbe\xe6\x8e\xa5'
p41
sg22
g37
sa(dp42
S'endflag'
p43
g14
sS'outputkeys'
p44
(lp45
S'title1'
p46
aS'title2'
p47
asa.